target datalayout = "e-m:e-p270:32:32-p271:32:32-p272:64:64-i64:64-i128:128-f80:128-n8:16:32:64-S128"
target triple = "x86_64-pc-linux-gnu"

@.str.228 = private unnamed_addr constant [26 x i8] c"UNKNOWN ERROR CODE (%04X)\00", align 1
@.str.229 = private unnamed_addr constant [3 x i8] c"%s\00", align 1
@.str.230 = private unnamed_addr constant [4 x i8] c" : \00", align 1

; Function Attrs: nounwind uwtable
define hidden void @mbedtls_strerror(i32 noundef %0, ptr noundef %1, i64 noundef %2) #0 {
  %4 = alloca i32, align 4
  %5 = alloca ptr, align 8
  %6 = alloca i64, align 8
  %7 = alloca i64, align 8
  %8 = alloca i32, align 4
  %9 = alloca ptr, align 8
  %10 = alloca ptr, align 8
  %11 = alloca i32, align 4
  store i32 %0, ptr %4, align 4, !tbaa !3
  store ptr %1, ptr %5, align 8, !tbaa !7
  store i64 %2, ptr %6, align 8, !tbaa !10
  call void @llvm.lifetime.start.p0(i64 8, ptr %7) #5
  call void @llvm.lifetime.start.p0(i64 4, ptr %8) #5
  call void @llvm.lifetime.start.p0(i64 8, ptr %9) #5
  store ptr null, ptr %9, align 8, !tbaa !7
  call void @llvm.lifetime.start.p0(i64 8, ptr %10) #5
  store ptr null, ptr %10, align 8, !tbaa !7
  %12 = load i64, ptr %6, align 8, !tbaa !10
  %13 = icmp eq i64 %12, 0
  br i1 %13, label %14, label %15

14:                                               ; preds = %3
  store i32 1, ptr %11, align 4
  br label %98

15:                                               ; preds = %3
  %16 = load ptr, ptr %5, align 8, !tbaa !7
  %17 = load i64, ptr %6, align 8, !tbaa !10
  call void @llvm.memset.p0.i64(ptr align 1 %16, i8 0, i64 %17, i1 false)
  %18 = load i32, ptr %4, align 4, !tbaa !3
  %19 = icmp slt i32 %18, 0
  br i1 %19, label %20, label %23

20:                                               ; preds = %15
  %21 = load i32, ptr %4, align 4, !tbaa !3
  %22 = sub nsw i32 0, %21
  store i32 %22, ptr %4, align 4, !tbaa !3
  br label %23

23:                                               ; preds = %20, %15
  %24 = load i32, ptr %4, align 4, !tbaa !3
  %25 = and i32 %24, 65408
  %26 = icmp ne i32 %25, 0
  br i1 %26, label %27, label %49

27:                                               ; preds = %23
  %28 = load i32, ptr %4, align 4, !tbaa !3
  %29 = and i32 %28, 65408
  store i32 %29, ptr %8, align 4, !tbaa !3
  %30 = load i32, ptr %4, align 4, !tbaa !3
  %31 = call ptr @mbedtls_high_level_strerr(i32 noundef %30)
  store ptr %31, ptr %9, align 8, !tbaa !7
  %32 = load ptr, ptr %9, align 8, !tbaa !7
  %33 = icmp eq ptr %32, null
  br i1 %33, label %34, label %39

34:                                               ; preds = %27
  %35 = load ptr, ptr %5, align 8, !tbaa !7
  %36 = load i64, ptr %6, align 8, !tbaa !10
  %37 = load i32, ptr %8, align 4, !tbaa !3
  %38 = call i32 (ptr, i64, ptr, ...) @snprintf(ptr noundef %35, i64 noundef %36, ptr noundef @.str.228, i32 noundef %37) #5
  br label %44

39:                                               ; preds = %27
  %40 = load ptr, ptr %5, align 8, !tbaa !7
  %41 = load i64, ptr %6, align 8, !tbaa !10
  %42 = load ptr, ptr %9, align 8, !tbaa !7
  %43 = call i32 (ptr, i64, ptr, ...) @snprintf(ptr noundef %40, i64 noundef %41, ptr noundef @.str.229, ptr noundef %42) #5
  br label %44

44:                                               ; preds = %39, %34
  %45 = load i32, ptr %8, align 4, !tbaa !3
  %46 = icmp eq i32 %45, 30592
  br i1 %46, label %47, label %48

47:                                               ; preds = %44
  store i32 1, ptr %11, align 4
  br label %98

48:                                               ; preds = %44
  br label %49

49:                                               ; preds = %48, %23
  %50 = load i32, ptr %4, align 4, !tbaa !3
  %51 = and i32 %50, -65409
  store i32 %51, ptr %8, align 4, !tbaa !3
  %52 = load i32, ptr %8, align 4, !tbaa !3
  %53 = icmp eq i32 %52, 0
  br i1 %53, label %54, label %55

54:                                               ; preds = %49
  store i32 1, ptr %11, align 4
  br label %98

55:                                               ; preds = %49
  %56 = load ptr, ptr %5, align 8, !tbaa !7
  %57 = call i64 @strlen(ptr noundef %56) #6
  store i64 %57, ptr %7, align 8, !tbaa !10
  %58 = load i64, ptr %7, align 8, !tbaa !10
  %59 = icmp ugt i64 %58, 0
  br i1 %59, label %60, label %82

60:                                               ; preds = %55
  %61 = load i64, ptr %6, align 8, !tbaa !10
  %62 = load i64, ptr %7, align 8, !tbaa !10
  %63 = sub i64 %61, %62
  %64 = icmp ult i64 %63, 5
  br i1 %64, label %65, label %66

65:                                               ; preds = %60
  store i32 1, ptr %11, align 4
  br label %98

66:                                               ; preds = %60
  %67 = load ptr, ptr %5, align 8, !tbaa !7
  %68 = load i64, ptr %7, align 8, !tbaa !10
  %69 = getelementptr inbounds nuw i8, ptr %67, i64 %68
  %70 = load i64, ptr %6, align 8, !tbaa !10
  %71 = load i64, ptr %7, align 8, !tbaa !10
  %72 = sub i64 %70, %71
  %73 = call i32 (ptr, i64, ptr, ...) @snprintf(ptr noundef %69, i64 noundef %72, ptr noundef @.str.230) #5
  %74 = load i64, ptr %7, align 8, !tbaa !10
  %75 = add i64 %74, 3
  %76 = load ptr, ptr %5, align 8, !tbaa !7
  %77 = getelementptr inbounds nuw i8, ptr %76, i64 %75
  store ptr %77, ptr %5, align 8, !tbaa !7
  %78 = load i64, ptr %7, align 8, !tbaa !10
  %79 = add i64 %78, 3
  %80 = load i64, ptr %6, align 8, !tbaa !10
  %81 = sub i64 %80, %79
  store i64 %81, ptr %6, align 8, !tbaa !10
  br label %82

82:                                               ; preds = %66, %55
  %83 = load i32, ptr %4, align 4, !tbaa !3
  %84 = call ptr @mbedtls_low_level_strerr(i32 noundef %83)
  store ptr %84, ptr %10, align 8, !tbaa !7
  %85 = load ptr, ptr %10, align 8, !tbaa !7
  %86 = icmp eq ptr %85, null
  br i1 %86, label %87, label %92

87:                                               ; preds = %82
  %88 = load ptr, ptr %5, align 8, !tbaa !7
  %89 = load i64, ptr %6, align 8, !tbaa !10
  %90 = load i32, ptr %8, align 4, !tbaa !3
  %91 = call i32 (ptr, i64, ptr, ...) @snprintf(ptr noundef %88, i64 noundef %89, ptr noundef @.str.228, i32 noundef %90) #5
  br label %97

92:                                               ; preds = %82
  %93 = load ptr, ptr %5, align 8, !tbaa !7
  %94 = load i64, ptr %6, align 8, !tbaa !10
  %95 = load ptr, ptr %10, align 8, !tbaa !7
  %96 = call i32 (ptr, i64, ptr, ...) @snprintf(ptr noundef %93, i64 noundef %94, ptr noundef @.str.229, ptr noundef %95) #5
  br label %97

97:                                               ; preds = %92, %87
  store i32 0, ptr %11, align 4
  br label %98

98:                                               ; preds = %97, %65, %54, %47, %14
  call void @llvm.lifetime.end.p0(i64 8, ptr %10) #5
  call void @llvm.lifetime.end.p0(i64 8, ptr %9) #5
  call void @llvm.lifetime.end.p0(i64 4, ptr %8) #5
  call void @llvm.lifetime.end.p0(i64 8, ptr %7) #5
  %99 = load i32, ptr %11, align 4
  switch i32 %99, label %101 [
    i32 0, label %100
    i32 1, label %100
  ]

100:                                              ; preds = %98, %98
  ret void

101:                                              ; preds = %98
  unreachable
}