; Function Attrs: nofree nounwind uwtable
define hidden void @mbedtls_strerror(i32 noundef %0, ptr noundef captures(none) %1, i64 noundef %2) local_unnamed_addr #1 {
  %4 = icmp eq i64 %2, 0
  br i1 %4, label %37, label %5

5:                                                ; preds = %3
  tail call void @llvm.memset.p0.i64(ptr align 1 %1, i8 0, i64 %2, i1 false)
  %spec.select = tail call i32 @llvm.abs.i32(i32 %0, i1 true)
  %6 = and i32 %spec.select, 65408
  %.not = icmp eq i32 %6, 0
  br i1 %.not, label %16, label %7

7:                                                ; preds = %5
  %8 = tail call ptr @mbedtls_high_level_strerr(i32 noundef %spec.select)
  %9 = icmp eq ptr %8, null
  br i1 %9, label %10, label %12

10:                                               ; preds = %7
  %11 = tail call i32 (ptr, i64, ptr, ...) @snprintf(ptr noundef %1, i64 noundef %2, ptr noundef nonnull @.str.228, i32 noundef %6) #6
  br label %14

12:                                               ; preds = %7
  %13 = tail call i32 (ptr, i64, ptr, ...) @snprintf(ptr noundef %1, i64 noundef %2, ptr noundef nonnull @.str.229, ptr noundef nonnull %8) #6
  br label %14

14:                                               ; preds = %12, %10
  %15 = icmp eq i32 %6, 30592
  br i1 %15, label %37, label %16

16:                                               ; preds = %14, %5
  %17 = and i32 %spec.select, 2147418239
  %18 = icmp eq i32 %17, 0
  br i1 %18, label %37, label %19

19:                                               ; preds = %16
  %20 = tail call i64 @strlen(ptr noundef nonnull dereferenceable(1) %1) #7
  %.not47 = icmp eq i64 %20, 0
  br i1 %.not47, label %30, label %21

21:                                               ; preds = %19
  %22 = sub i64 %2, %20
  %23 = icmp ult i64 %22, 5
  br i1 %23, label %37, label %24

24:                                               ; preds = %21
  %25 = getelementptr inbounds nuw i8, ptr %1, i64 %20
  %26 = tail call i32 (ptr, i64, ptr, ...) @snprintf(ptr noundef nonnull %25, i64 noundef %22, ptr noundef nonnull @.str.230) #6
  %27 = add i64 %20, 3
  %28 = getelementptr inbounds nuw i8, ptr %1, i64 %27
  %29 = sub i64 %2, %27
  br label %30

30:                                               ; preds = %24, %19
  %.038 = phi ptr [ %28, %24 ], [ %1, %19 ]
  %.037 = phi i64 [ %29, %24 ], [ %2, %19 ]
  %31 = tail call ptr @mbedtls_low_level_strerr(i32 noundef %spec.select)
  %32 = icmp eq ptr %31, null
  br i1 %32, label %33, label %35

33:                                               ; preds = %30
  %34 = tail call i32 (ptr, i64, ptr, ...) @snprintf(ptr noundef nonnull %.038, i64 noundef %.037, ptr noundef nonnull @.str.228, i32 noundef %17) #6
  br label %37

35:                                               ; preds = %30
  %36 = tail call i32 (ptr, i64, ptr, ...) @snprintf(ptr noundef nonnull %.038, i64 noundef %.037, ptr noundef nonnull @.str.229, ptr noundef nonnull %31) #6
  br label %37

37:                                               ; preds = %33, %35, %21, %16, %14, %3
  ret void
}